target datalayout = "e-m:e-p270:32:32-p271:32:32-p272:64:64-i64:64-i128:128-f80:128-n8:16:32:64-S128"
target triple = "x86_64-pc-linux-gnu"

%struct.Llb_Mtr_t_ = type { i32, i32, i32, i32, ptr, ptr, ptr, ptr, ptr, ptr, ptr }

@Llb_MtrVarName.Buffer = internal global [10 x i8] zeroinitializer, align 1
@.str = private unnamed_addr constant [3 x i8] c"pi\00", align 1
@.str.1 = private unnamed_addr constant [3 x i8] c"CS\00", align 1
@.str.2 = private unnamed_addr constant [3 x i8] c"NS\00", align 1
@.str.3 = private unnamed_addr constant [4 x i8] c"int\00", align 1
@.str.4 = private unnamed_addr constant [7 x i8] c"%3d : \00", align 1
@.str.5 = private unnamed_addr constant [5 x i8] c"%3d \00", align 1
@.str.6 = private unnamed_addr constant [5 x i8] c"%3s \00", align 1
@.str.7 = private unnamed_addr constant [3 x i8] c"%c\00", align 1
@.str.8 = private unnamed_addr constant [2 x i8] c"\0A\00", align 1

; Function Attrs: nounwind uwtable
define ptr @Llb_MtrVarName(ptr noundef %0, i32 noundef %1) #0 {
  %3 = alloca ptr, align 8
  %4 = alloca i32, align 4
  store ptr %0, ptr %3, align 8, !tbaa !3
  store i32 %1, ptr %4, align 4, !tbaa !8
  %5 = load i32, ptr %4, align 4, !tbaa !8
  %6 = load ptr, ptr %3, align 8, !tbaa !3
  %7 = getelementptr inbounds nuw %struct.Llb_Mtr_t_, ptr %6, i32 0, i32 0
  %8 = load i32, ptr %7, align 8, !tbaa !31
  %9 = icmp slt i32 %5, %8
  br i1 %9, label %10, label %12

10:                                               ; preds = %2
  %11 = call ptr @strcpy(ptr noundef @Llb_MtrVarName.Buffer, ptr noundef @.str) #8
  br label %40

12:                                               ; preds = %2
  %13 = load i32, ptr %4, align 4, !tbaa !8
  %14 = load ptr, ptr %3, align 8, !tbaa !3
  %15 = getelementptr inbounds nuw %struct.Llb_Mtr_t_, ptr %14, i32 0, i32 0
  %16 = load i32, ptr %15, align 8, !tbaa !31
  %17 = load ptr, ptr %3, align 8, !tbaa !3
  %18 = getelementptr inbounds nuw %struct.Llb_Mtr_t_, ptr %17, i32 0, i32 1
  %19 = load i32, ptr %18, align 4, !tbaa !32
  %20 = add nsw i32 %16, %19
  %21 = icmp slt i32 %13, %20
  br i1 %21, label %22, label %24

22:                                               ; preds = %12
  %23 = call ptr @strcpy(ptr noundef @Llb_MtrVarName.Buffer, ptr noundef @.str.1) #8
  br label %39

24:                                               ; preds = %12
  %25 = load i32, ptr %4, align 4, !tbaa !8
  %26 = load ptr, ptr %3, align 8, !tbaa !3
  %27 = getelementptr inbounds nuw %struct.Llb_Mtr_t_, ptr %26, i32 0, i32 2
  %28 = load i32, ptr %27, align 8, !tbaa !17
  %29 = load ptr, ptr %3, align 8, !tbaa !3
  %30 = getelementptr inbounds nuw %struct.Llb_Mtr_t_, ptr %29, i32 0, i32 1
  %31 = load i32, ptr %30, align 4, !tbaa !32
  %32 = sub nsw i32 %28, %31
  %33 = icmp sge i32 %25, %32
  br i1 %33, label %34, label %36

34:                                               ; preds = %24
  %35 = call ptr @strcpy(ptr noundef @Llb_MtrVarName.Buffer, ptr noundef @.str.2) #8
  br label %38

36:                                               ; preds = %24
  %37 = call ptr @strcpy(ptr noundef @Llb_MtrVarName.Buffer, ptr noundef @.str.3) #8
  br label %38

38:                                               ; preds = %36, %34
  br label %39

39:                                               ; preds = %38, %22
  br label %40

40:                                               ; preds = %39, %10
  ret ptr @Llb_MtrVarName.Buffer
}

; Function Attrs: nounwind uwtable
define void @Llb_MtrPrint(ptr noundef %0, i32 noundef %1) #0 {
  %3 = alloca ptr, align 8
  %4 = alloca i32, align 4
  %5 = alloca ptr, align 8
  %6 = alloca i32, align 4
  %7 = alloca i32, align 4
  %8 = alloca i32, align 4
  store ptr %0, ptr %3, align 8, !tbaa !3
  store i32 %1, ptr %4, align 4, !tbaa !8
  call void @llvm.lifetime.start.p0(i64 8, ptr %5) #8
  store ptr null, ptr %5, align 8, !tbaa !26
  call void @llvm.lifetime.start.p0(i64 4, ptr %6) #8
  call void @llvm.lifetime.start.p0(i64 4, ptr %7) #8
  call void @llvm.lifetime.start.p0(i64 4, ptr %8) #8
  %9 = load i32, ptr %4, align 4, !tbaa !8
  %10 = icmp ne i32 %9, 0
  br i1 %10, label %11, label %14

11:                                               ; preds = %2
  %12 = load ptr, ptr %3, align 8, !tbaa !3
  %13 = call ptr @Llb_MtrFindVarOrder(ptr noundef %12)
  store ptr %13, ptr %5, align 8, !tbaa !26
  br label %14

14:                                               ; preds = %11, %2
  store i32 0, ptr %6, align 4, !tbaa !8
  br label %15

15:                                               ; preds = %75, %14
  %16 = load i32, ptr %6, align 4, !tbaa !8
  %17 = load ptr, ptr %3, align 8, !tbaa !3
  %18 = getelementptr inbounds nuw %struct.Llb_Mtr_t_, ptr %17, i32 0, i32 2
  %19 = load i32, ptr %18, align 8, !tbaa !17
  %20 = icmp slt i32 %16, %19
  br i1 %20, label %21, label %78

21:                                               ; preds = %15
  %22 = load ptr, ptr %5, align 8, !tbaa !26
  %23 = icmp ne ptr %22, null
  br i1 %23, label %24, label %30

24:                                               ; preds = %21
  %25 = load ptr, ptr %5, align 8, !tbaa !26
  %26 = load i32, ptr %6, align 4, !tbaa !8
  %27 = sext i32 %26 to i64
  %28 = getelementptr inbounds i32, ptr %25, i64 %27
  %29 = load i32, ptr %28, align 4, !tbaa !8
  br label %32

30:                                               ; preds = %21
  %31 = load i32, ptr %6, align 4, !tbaa !8
  br label %32

32:                                               ; preds = %30, %24
  %33 = phi i32 [ %29, %24 ], [ %31, %30 ]
  store i32 %33, ptr %7, align 4, !tbaa !8
  %34 = load i32, ptr %7, align 4, !tbaa !8
  %35 = call i32 (ptr, ...) @printf(ptr noundef @.str.4, i32 noundef %34)
  %36 = load ptr, ptr %3, align 8, !tbaa !3
  %37 = getelementptr inbounds nuw %struct.Llb_Mtr_t_, ptr %36, i32 0, i32 6
  %38 = load ptr, ptr %37, align 8, !tbaa !33
  %39 = load i32, ptr %7, align 4, !tbaa !8
  %40 = sext i32 %39 to i64
  %41 = getelementptr inbounds i32, ptr %38, i64 %40
  %42 = load i32, ptr %41, align 4, !tbaa !8
  %43 = call i32 (ptr, ...) @printf(ptr noundef @.str.5, i32 noundef %42)
  %44 = load ptr, ptr %3, align 8, !tbaa !3
  %45 = load i32, ptr %7, align 4, !tbaa !8
  %46 = call ptr @Llb_MtrVarName(ptr noundef %44, i32 noundef %45)
  %47 = call i32 (ptr, ...) @printf(ptr noundef @.str.6, ptr noundef %46)
  store i32 0, ptr %8, align 4, !tbaa !8
  br label %48

48:                                               ; preds = %70, %32
  %49 = load i32, ptr %8, align 4, !tbaa !8
  %50 = load ptr, ptr %3, align 8, !tbaa !3
  %51 = getelementptr inbounds nuw %struct.Llb_Mtr_t_, ptr %50, i32 0, i32 3
  %52 = load i32, ptr %51, align 4, !tbaa !10
  %53 = icmp slt i32 %49, %52
  br i1 %53, label %54, label %73

54:                                               ; preds = %48
  %55 = load ptr, ptr %3, align 8, !tbaa !3
  %56 = getelementptr inbounds nuw %struct.Llb_Mtr_t_, ptr %55, i32 0, i32 7
  %57 = load ptr, ptr %56, align 8, !tbaa !18
  %58 = load i32, ptr %8, align 4, !tbaa !8
  %59 = sext i32 %58 to i64
  %60 = getelementptr inbounds ptr, ptr %57, i64 %59
  %61 = load ptr, ptr %60, align 8, !tbaa !19
  %62 = load i32, ptr %7, align 4, !tbaa !8
  %63 = sext i32 %62 to i64
  %64 = getelementptr inbounds i8, ptr %61, i64 %63
  %65 = load i8, ptr %64, align 1, !tbaa !20
  %66 = sext i8 %65 to i32
  %67 = icmp ne i32 %66, 0
  %68 = select i1 %67, i32 42, i32 32
  %69 = call i32 (ptr, ...) @printf(ptr noundef @.str.7, i32 noundef %68)
  br label %70

70:                                               ; preds = %54
  %71 = load i32, ptr %8, align 4, !tbaa !8
  %72 = add nsw i32 %71, 1
  store i32 %72, ptr %8, align 4, !tbaa !8
  br label %48, !llvm.loop !34

73:                                               ; preds = %48
  %74 = call i32 (ptr, ...) @printf(ptr noundef @.str.8)
  br label %75

75:                                               ; preds = %73
  %76 = load i32, ptr %6, align 4, !tbaa !8
  %77 = add nsw i32 %76, 1
  store i32 %77, ptr %6, align 4, !tbaa !8
  br label %15, !llvm.loop !35

78:                                               ; preds = %15
  %79 = load ptr, ptr %5, align 8, !tbaa !26
  %80 = icmp ne ptr %79, null
  br i1 %80, label %81, label %83

81:                                               ; preds = %78
  %82 = load ptr, ptr %5, align 8, !tbaa !26
  call void @free(ptr noundef %82) #8
  store ptr null, ptr %5, align 8, !tbaa !26
  br label %84

83:                                               ; preds = %78
  br label %84

84:                                               ; preds = %83, %81
  call void @llvm.lifetime.end.p0(i64 4, ptr %8) #8
  call void @llvm.lifetime.end.p0(i64 4, ptr %7) #8
  call void @llvm.lifetime.end.p0(i64 4, ptr %6) #8
  call void @llvm.lifetime.end.p0(i64 8, ptr %5) #8
  ret void
}