; Function Attrs: nounwind uwtable
define void @Llb_MtrPrint(ptr noundef readonly captures(none) %0, i32 noundef %1) local_unnamed_addr #6 {
  %.not = icmp eq i32 %1, 0
  br i1 %.not, label %5, label %3

3:                                                ; preds = %2
  %4 = tail call ptr @Llb_MtrFindVarOrder(ptr noundef %0)
  br label %5

5:                                                ; preds = %3, %2
  %.021 = phi ptr [ %4, %3 ], [ null, %2 ]
  %6 = getelementptr inbounds nuw i8, ptr %0, i64 8
  %7 = load i32, ptr %6, align 8, !tbaa !3
  %8 = icmp sgt i32 %7, 0
  br i1 %8, label %.lr.ph30, label %._crit_edge31

.lr.ph30:                                         ; preds = %5
  %.not24 = icmp eq ptr %.021, null
  %9 = getelementptr inbounds nuw i8, ptr %0, i64 32
  %10 = getelementptr inbounds nuw i8, ptr %0, i64 4
  %11 = getelementptr inbounds nuw i8, ptr %0, i64 12
  %12 = getelementptr inbounds nuw i8, ptr %0, i64 40
  br label %13

13:                                               ; preds = %.lr.ph30, %._crit_edge
  %indvars.iv33 = phi i64 [ 0, %.lr.ph30 ], [ %indvars.iv.next34, %._crit_edge ]
  %14 = trunc nuw nsw i64 %indvars.iv33 to i32
  br i1 %.not24, label %18, label %15

15:                                               ; preds = %13
  %16 = getelementptr inbounds nuw i32, ptr %.021, i64 %indvars.iv33
  %17 = load i32, ptr %16, align 4, !tbaa !15
  br label %18

18:                                               ; preds = %13, %15
  %19 = phi i32 [ %17, %15 ], [ %14, %13 ]
  %20 = tail call i32 (ptr, ...) @printf(ptr noundef nonnull dereferenceable(1) @.str.4, i32 noundef %19)
  %21 = load ptr, ptr %9, align 8, !tbaa !26
  %22 = sext i32 %19 to i64
  %23 = getelementptr inbounds i32, ptr %21, i64 %22
  %24 = load i32, ptr %23, align 4, !tbaa !15
  %25 = tail call i32 (ptr, ...) @printf(ptr noundef nonnull dereferenceable(1) @.str.5, i32 noundef %24)
  %26 = load i32, ptr %0, align 8, !tbaa !24
  %27 = icmp slt i32 %19, %26
  br i1 %27, label %28, label %29

28:                                               ; preds = %18
  tail call void @llvm.memcpy.p0.p0.i64(ptr noundef nonnull align 4 dereferenceable(3) @Llb_MtrVarName.Buffer, ptr noundef nonnull align 1 dereferenceable(3) @.str, i64 3, i1 false) #19
  br label %Llb_MtrVarName.exit

29:                                               ; preds = %18
  %30 = load i32, ptr %10, align 4, !tbaa !25
  %31 = add nsw i32 %30, %26
  %32 = icmp slt i32 %19, %31
  br i1 %32, label %33, label %34

33:                                               ; preds = %29
  tail call void @llvm.memcpy.p0.p0.i64(ptr noundef nonnull align 4 dereferenceable(3) @Llb_MtrVarName.Buffer, ptr noundef nonnull align 1 dereferenceable(3) @.str.1, i64 3, i1 false) #19
  br label %Llb_MtrVarName.exit

34:                                               ; preds = %29
  %35 = load i32, ptr %6, align 8, !tbaa !3
  %36 = sub nsw i32 %35, %30
  %.not.i = icmp slt i32 %19, %36
  br i1 %.not.i, label %38, label %37

37:                                               ; preds = %34
  tail call void @llvm.memcpy.p0.p0.i64(ptr noundef nonnull align 4 dereferenceable(3) @Llb_MtrVarName.Buffer, ptr noundef nonnull align 1 dereferenceable(3) @.str.2, i64 3, i1 false) #19
  br label %Llb_MtrVarName.exit

38:                                               ; preds = %34
  store i32 7630441, ptr @Llb_MtrVarName.Buffer, align 4
  br label %Llb_MtrVarName.exit

Llb_MtrVarName.exit:                              ; preds = %28, %33, %37, %38
  %39 = tail call i32 (ptr, ...) @printf(ptr noundef nonnull dereferenceable(1) @.str.6, ptr noundef nonnull @Llb_MtrVarName.Buffer)
  %40 = load i32, ptr %11, align 4, !tbaa !14
  %41 = icmp sgt i32 %40, 0
  br i1 %41, label %.lr.ph, label %._crit_edge

.lr.ph:                                           ; preds = %Llb_MtrVarName.exit, %.lr.ph
  %indvars.iv = phi i64 [ %indvars.iv.next, %.lr.ph ], [ 0, %Llb_MtrVarName.exit ]
  %42 = load ptr, ptr %12, align 8, !tbaa !19
  %43 = getelementptr inbounds nuw ptr, ptr %42, i64 %indvars.iv
  %44 = load ptr, ptr %43, align 8, !tbaa !20
  %45 = getelementptr inbounds i8, ptr %44, i64 %22
  %46 = load i8, ptr %45, align 1, !tbaa !21
  %.not25 = icmp eq i8 %46, 0
  %47 = select i1 %.not25, i32 32, i32 42
  %putchar26 = tail call i32 @putchar(i32 %47)
  %indvars.iv.next = add nuw nsw i64 %indvars.iv, 1
  %48 = load i32, ptr %11, align 4, !tbaa !14
  %49 = sext i32 %48 to i64
  %50 = icmp slt i64 %indvars.iv.next, %49
  br i1 %50, label %.lr.ph, label %._crit_edge, !llvm.loop !27

._crit_edge:                                      ; preds = %.lr.ph, %Llb_MtrVarName.exit
  %putchar = tail call i32 @putchar(i32 10)
  %indvars.iv.next34 = add nuw nsw i64 %indvars.iv33, 1
  %51 = load i32, ptr %6, align 8, !tbaa !3
  %52 = sext i32 %51 to i64
  %53 = icmp slt i64 %indvars.iv.next34, %52
  br i1 %53, label %13, label %._crit_edge31, !llvm.loop !28

._crit_edge31:                                    ; preds = %._crit_edge, %5
  %.not23 = icmp eq ptr %.021, null
  br i1 %.not23, label %55, label %54

54:                                               ; preds = %._crit_edge31
  tail call void @free(ptr noundef nonnull %.021) #19
  br label %55

55:                                               ; preds = %._crit_edge31, %54
  ret void
}